; Function Attrs: nounwind uwtable
define internal void @crawler_metadump_finalize(ptr noundef captures(none) %0) #0 {
  %2 = getelementptr inbounds nuw i8, ptr %0, i64 8
  %3 = load ptr, ptr %2, align 8, !tbaa !51
  %.not = icmp eq ptr %3, null
  br i1 %.not, label %17, label %4

4:                                                ; preds = %1
  %5 = tail call fastcc i32 @lru_crawler_write(ptr noundef nonnull %2)
  %6 = icmp eq i32 %5, 0
  br i1 %6, label %7, label %17

7:                                                ; preds = %4
  %8 = getelementptr inbounds nuw i8, ptr %0, i64 48
  %9 = load i32, ptr %8, align 8, !tbaa !48
  %.not10 = icmp eq i32 %9, 0
  %10 = getelementptr inbounds nuw i8, ptr %0, i64 32
  %11 = load ptr, ptr %10, align 8, !tbaa !49
  %12 = getelementptr inbounds nuw i8, ptr %0, i64 24
  br i1 %.not10, label %14, label %13

13:                                               ; preds = %7
  tail call void @llvm.memcpy.p0.p0.i64(ptr noundef nonnull align 1 dereferenceable(30) %11, ptr noundef nonnull align 1 dereferenceable(30) @.str.12, i64 30, i1 false)
  br label %.sink.split

14:                                               ; preds = %7
  tail call void @llvm.memcpy.p0.p0.i64(ptr noundef nonnull align 1 dereferenceable(5) %11, ptr noundef nonnull align 1 dereferenceable(5) @.str.13, i64 5, i1 false)
  br label %.sink.split

.sink.split:                                      ; preds = %13, %14
  %.sink12 = phi i32 [ 5, %14 ], [ 30, %13 ]
  %15 = load i32, ptr %12, align 8, !tbaa !50
  %16 = add i32 %15, %.sink12
  store i32 %16, ptr %12, align 8, !tbaa !50
  br label %17

17:                                               ; preds = %.sink.split, %4, %1
  ret void
}